; Function Attrs: nounwind uwtable
define dso_local range(i64 0, 4294967296) i64 @be_lo_import_with_oid(ptr noundef readonly captures(none) %0) local_unnamed_addr #0 {
  %2 = getelementptr inbounds nuw i8, ptr %0, i64 32
  %3 = load i64, ptr %2, align 8
  %4 = inttoptr i64 %3 to ptr
  %5 = tail call ptr @pg_detoast_datum_packed(ptr noundef %4) #10
  %6 = getelementptr inbounds nuw i8, ptr %0, i64 48
  %7 = load i64, ptr %6, align 8
  %8 = trunc i64 %7 to i32
  %9 = tail call fastcc i32 @lo_import_internal(ptr noundef %5, i32 noundef %8)
  %10 = zext i32 %9 to i64
  ret i64 %10
}